target datalayout = "e-m:e-p270:32:32-p271:32:32-p272:64:64-i64:64-i128:128-f80:128-n8:16:32:64-S128"
target triple = "x86_64-pc-linux-gnu"

%struct._zend_executor_globals = type { %struct._zval_struct, %struct._zval_struct, [32 x ptr], ptr, ptr, %struct._zend_array, %struct._zend_array, ptr, i32, i32, ptr, ptr, ptr, ptr, ptr, ptr, i64, ptr, ptr, i32, i32, i64, i32, i32, i32, i8, i8, %struct.zend_atomic_bool_s, %struct.zend_atomic_bool_s, ptr, i64, ptr, ptr, %struct._zend_array, %struct._zend_array, i32, i8, %struct._zval_struct, %struct._zval_struct, %struct._zend_stack, %struct._zend_stack, %struct._zend_stack, ptr, i32, i32, i64, ptr, ptr, ptr, %struct._zend_objects_store, ptr, ptr, ptr, [3 x %struct._zend_op], ptr, i8, i8, i64, i32, i32, ptr, [16 x %struct._HashTableIterator], ptr, %union._zend_function, %struct._zend_op, %struct._zend_array, i64, %struct.zend_get_gc_buffer, ptr, ptr, ptr, i64, i8, i32, ptr, ptr, i64, %struct._zend_call_stack, i64, i64, [6 x ptr] }
%struct.zend_atomic_bool_s = type { i8 }
%struct._zval_struct = type { %union._zend_value, %union.anon.0, %union.anon.3 }
%union._zend_value = type { i64 }
%union.anon.0 = type { i32 }
%union.anon.3 = type { i32 }
%struct._zend_stack = type { i32, i32, i32, ptr }
%struct._zend_objects_store = type { ptr, i32, i32, i32 }
%struct._HashTableIterator = type { ptr, i32, i32 }
%union._zend_function = type { %struct._zend_op_array }
%struct._zend_op_array = type { i8, [3 x i8], i32, ptr, ptr, ptr, i32, i32, ptr, ptr, ptr, ptr, i32, i32, i32, i32, ptr, ptr, ptr, ptr, ptr, i32, i32, ptr, ptr, ptr, i32, i32, i32, i32, ptr, ptr, [6 x ptr] }
%struct._zend_op = type { ptr, %union._znode_op, %union._znode_op, %union._znode_op, i32, i32, i8, i8, i8, i8 }
%union._znode_op = type { i32 }
%struct._zend_array = type { %struct._zend_refcounted_h, %union.anon.4, i32, %union.anon.6, i32, i32, i32, i32, i64, ptr }
%struct._zend_refcounted_h = type { i32, %union.anon }
%union.anon = type { i32 }
%union.anon.4 = type { i32 }
%union.anon.6 = type { ptr }
%struct.zend_get_gc_buffer = type { ptr, ptr, ptr }
%struct._zend_call_stack = type { ptr, i64 }
%struct._xmlreader_object = type { ptr, ptr, ptr, ptr, %struct._zend_object }
%struct._zend_object = type { %struct._zend_refcounted_h, i32, ptr, ptr, ptr, [1 x %struct._zval_struct] }
%struct._zend_execute_data = type { ptr, ptr, ptr, ptr, %struct._zval_struct, ptr, ptr, ptr, ptr }

@executor_globals = external global %struct._zend_executor_globals, align 8
@.str.9 = private unnamed_addr constant [16 x i8] c"cannot be empty\00", align 1
@.str.18 = private unnamed_addr constant [3 x i8] c"p!\00", align 1
@.str.19 = private unnamed_addr constant [23 x i8] c"Schema contains errors\00", align 1
@.str.20 = private unnamed_addr constant [36 x i8] c"Schema must be set prior to reading\00", align 1

; Function Attrs: nounwind uwtable
define internal ptr @php_xmlreader_fetch_object(ptr noundef %0) #0 {
  %2 = alloca ptr, align 8
  store ptr %0, ptr %2, align 8
  %3 = load ptr, ptr %2, align 8
  %4 = getelementptr inbounds i8, ptr %3, i64 -32
  ret ptr %4
}

; Function Attrs: nounwind uwtable
define hidden void @zim_XMLReader_setSchema(ptr noundef %0, ptr noundef %1) #0 {
  %3 = alloca ptr, align 8
  %4 = alloca ptr, align 8
  %5 = alloca ptr, align 8
  %6 = alloca i64, align 8
  %7 = alloca i32, align 4
  %8 = alloca ptr, align 8
  %9 = alloca ptr, align 8
  %10 = alloca i32, align 4
  %11 = alloca i32, align 4
  %12 = alloca i32, align 4
  %13 = alloca i32, align 4
  %14 = alloca i32, align 4
  %15 = alloca i32, align 4
  store ptr %0, ptr %3, align 8
  store ptr %1, ptr %4, align 8
  store i64 0, ptr %6, align 8
  store i32 -1, ptr %7, align 4
  %16 = load ptr, ptr %3, align 8
  %17 = getelementptr inbounds %struct._zend_execute_data, ptr %16, i32 0, i32 4
  %18 = getelementptr inbounds %struct._zval_struct, ptr %17, i32 0, i32 2
  %19 = load i32, ptr %18, align 4
  %20 = call i32 (i32, ptr, ...) @zend_parse_parameters(i32 noundef %19, ptr noundef @.str.18, ptr noundef %9, ptr noundef %6)
  %21 = icmp eq i32 %20, -1
  br i1 %21, label %22, label %27

22:                                               ; preds = %2
  br label %23

23:                                               ; preds = %22
  %24 = load ptr, ptr getelementptr inbounds (%struct._zend_executor_globals, ptr @executor_globals, i32 0, i32 50), align 8
  %25 = icmp ne ptr %24, null
  call void @llvm.assume(i1 %25)
  br label %102

26:                                               ; No predecessors!
  br label %27

27:                                               ; preds = %26, %2
  %28 = load ptr, ptr %9, align 8
  %29 = icmp ne ptr %28, null
  br i1 %29, label %30, label %38

30:                                               ; preds = %27
  %31 = load i64, ptr %6, align 8
  %32 = icmp ne i64 %31, 0
  br i1 %32, label %38, label %33

33:                                               ; preds = %30
  call void (i32, ptr, ...) @zend_argument_value_error(i32 noundef 1, ptr noundef @.str.9)
  br label %34

34:                                               ; preds = %33
  %35 = load ptr, ptr getelementptr inbounds (%struct._zend_executor_globals, ptr @executor_globals, i32 0, i32 50), align 8
  %36 = icmp ne ptr %35, null
  call void @llvm.assume(i1 %36)
  br label %102

37:                                               ; No predecessors!
  br label %38

38:                                               ; preds = %37, %30, %27
  %39 = load ptr, ptr %3, align 8
  %40 = getelementptr inbounds %struct._zend_execute_data, ptr %39, i32 0, i32 4
  store ptr %40, ptr %5, align 8
  %41 = load ptr, ptr %5, align 8
  %42 = getelementptr inbounds %struct._zval_struct, ptr %41, i32 0, i32 0
  %43 = load ptr, ptr %42, align 8
  %44 = call ptr @php_xmlreader_fetch_object(ptr noundef %43)
  store ptr %44, ptr %8, align 8
  %45 = load ptr, ptr %8, align 8
  %46 = icmp ne ptr %45, null
  br i1 %46, label %47, label %97

47:                                               ; preds = %38
  %48 = load ptr, ptr %8, align 8
  %49 = getelementptr inbounds %struct._xmlreader_object, ptr %48, i32 0, i32 0
  %50 = load ptr, ptr %49, align 8
  %51 = icmp ne ptr %50, null
  br i1 %51, label %52, label %97

52:                                               ; preds = %47
  %53 = call ptr @__xmlLoadExtDtdDefaultValue()
  %54 = load i32, ptr %53, align 4
  store i32 %54, ptr %10, align 4
  %55 = call ptr @__xmlLoadExtDtdDefaultValue()
  store i32 0, ptr %55, align 4
  %56 = call ptr @__xmlDoValidityCheckingDefaultValue()
  %57 = load i32, ptr %56, align 4
  store i32 %57, ptr %11, align 4
  %58 = call ptr @__xmlDoValidityCheckingDefaultValue()
  store i32 0, ptr %58, align 4
  %59 = call i32 @xmlPedanticParserDefault(i32 noundef 0)
  store i32 %59, ptr %12, align 4
  %60 = call i32 @xmlSubstituteEntitiesDefault(i32 noundef 0)
  store i32 %60, ptr %13, align 4
  %61 = call i32 @xmlLineNumbersDefault(i32 noundef 0)
  store i32 %61, ptr %14, align 4
  %62 = call i32 @xmlKeepBlanksDefault(i32 noundef 1)
  store i32 %62, ptr %15, align 4
  %63 = load ptr, ptr %8, align 8
  %64 = getelementptr inbounds %struct._xmlreader_object, ptr %63, i32 0, i32 0
  %65 = load ptr, ptr %64, align 8
  %66 = load ptr, ptr %9, align 8
  %67 = call i32 @xmlTextReaderSchemaValidate(ptr noundef %65, ptr noundef %66)
  store i32 %67, ptr %7, align 4
  %68 = load i32, ptr %10, align 4
  %69 = call ptr @__xmlLoadExtDtdDefaultValue()
  store i32 %68, ptr %69, align 4
  %70 = load i32, ptr %11, align 4
  %71 = call ptr @__xmlDoValidityCheckingDefaultValue()
  store i32 %70, ptr %71, align 4
  %72 = load i32, ptr %12, align 4
  %73 = call i32 @xmlPedanticParserDefault(i32 noundef %72)
  %74 = load i32, ptr %13, align 4
  %75 = call i32 @xmlSubstituteEntitiesDefault(i32 noundef %74)
  %76 = load i32, ptr %14, align 4
  %77 = call i32 @xmlLineNumbersDefault(i32 noundef %76)
  %78 = load i32, ptr %15, align 4
  %79 = call i32 @xmlKeepBlanksDefault(i32 noundef %78)
  %80 = load i32, ptr %7, align 4
  %81 = icmp eq i32 %80, 0
  br i1 %81, label %82, label %89

82:                                               ; preds = %52
  br label %83

83:                                               ; preds = %82
  br label %84

84:                                               ; preds = %83
  %85 = load ptr, ptr %4, align 8
  %86 = getelementptr inbounds %struct._zval_struct, ptr %85, i32 0, i32 1
  store i32 3, ptr %86, align 8
  br label %87

87:                                               ; preds = %84
  br label %102

88:                                               ; No predecessors!
  br label %96

89:                                               ; preds = %52
  call void (ptr, i32, ptr, ...) @php_error_docref(ptr noundef null, i32 noundef 2, ptr noundef @.str.19)
  br label %90

90:                                               ; preds = %89
  br label %91

91:                                               ; preds = %90
  %92 = load ptr, ptr %4, align 8
  %93 = getelementptr inbounds %struct._zval_struct, ptr %92, i32 0, i32 1
  store i32 2, ptr %93, align 8
  br label %94

94:                                               ; preds = %91
  br label %102

95:                                               ; No predecessors!
  br label %96

96:                                               ; preds = %95, %88
  br label %102

97:                                               ; preds = %47, %38
  call void (ptr, ptr, ...) @zend_throw_error(ptr noundef null, ptr noundef @.str.20)
  br label %98

98:                                               ; preds = %97
  %99 = load ptr, ptr getelementptr inbounds (%struct._zend_executor_globals, ptr @executor_globals, i32 0, i32 50), align 8
  %100 = icmp ne ptr %99, null
  call void @llvm.assume(i1 %100)
  br label %102

101:                                              ; No predecessors!
  br label %102

102:                                              ; preds = %101, %98, %96, %94, %87, %34, %23
  ret void
}