; Function Attrs: nounwind uwtable
define hidden void @zim_XMLReader_setSchema(ptr nocapture noundef readonly %0, ptr nocapture noundef writeonly %1) #0 {
  %3 = alloca i64, align 8
  %4 = alloca ptr, align 8
  store i64 0, ptr %3, align 8
  %5 = getelementptr inbounds i8, ptr %0, i64 32
  %6 = getelementptr inbounds i8, ptr %0, i64 44
  %7 = load i32, ptr %6, align 4
  %8 = call i32 (i32, ptr, ...) @zend_parse_parameters(i32 noundef %7, ptr noundef nonnull @.str.18, ptr noundef nonnull %4, ptr noundef nonnull %3) #11
  %9 = icmp eq i32 %8, -1
  br i1 %9, label %10, label %13

10:                                               ; preds = %2
  %11 = load ptr, ptr getelementptr inbounds (%struct._zend_executor_globals, ptr @executor_globals, i64 0, i32 50), align 8
  %12 = icmp ne ptr %11, null
  call void @llvm.assume(i1 %12)
  br label %53

13:                                               ; preds = %2
  %14 = load ptr, ptr %4, align 8
  %15 = icmp eq ptr %14, null
  %16 = load i64, ptr %3, align 8
  %17 = icmp ne i64 %16, 0
  %or.cond = select i1 %15, i1 true, i1 %17
  br i1 %or.cond, label %21, label %18

18:                                               ; preds = %13
  call void (i32, ptr, ...) @zend_argument_value_error(i32 noundef 1, ptr noundef nonnull @.str.9) #11
  %19 = load ptr, ptr getelementptr inbounds (%struct._zend_executor_globals, ptr @executor_globals, i64 0, i32 50), align 8
  %20 = icmp ne ptr %19, null
  call void @llvm.assume(i1 %20)
  br label %53

21:                                               ; preds = %13
  %22 = load ptr, ptr %5, align 8
  %23 = getelementptr inbounds i8, ptr %22, i64 -32
  %24 = load ptr, ptr %23, align 8
  %.not15 = icmp eq ptr %24, null
  br i1 %.not15, label %50, label %25

25:                                               ; preds = %21
  %26 = call ptr @__xmlLoadExtDtdDefaultValue() #11
  %27 = load i32, ptr %26, align 4
  %28 = call ptr @__xmlLoadExtDtdDefaultValue() #11
  store i32 0, ptr %28, align 4
  %29 = call ptr @__xmlDoValidityCheckingDefaultValue() #11
  %30 = load i32, ptr %29, align 4
  %31 = call ptr @__xmlDoValidityCheckingDefaultValue() #11
  store i32 0, ptr %31, align 4
  %32 = call i32 @xmlPedanticParserDefault(i32 noundef 0) #11
  %33 = call i32 @xmlSubstituteEntitiesDefault(i32 noundef 0) #11
  %34 = call i32 @xmlLineNumbersDefault(i32 noundef 0) #11
  %35 = call i32 @xmlKeepBlanksDefault(i32 noundef 1) #11
  %36 = load ptr, ptr %23, align 8
  %37 = load ptr, ptr %4, align 8
  %38 = call i32 @xmlTextReaderSchemaValidate(ptr noundef %36, ptr noundef %37) #11
  %39 = call ptr @__xmlLoadExtDtdDefaultValue() #11
  store i32 %27, ptr %39, align 4
  %40 = call ptr @__xmlDoValidityCheckingDefaultValue() #11
  store i32 %30, ptr %40, align 4
  %41 = call i32 @xmlPedanticParserDefault(i32 noundef %32) #11
  %42 = call i32 @xmlSubstituteEntitiesDefault(i32 noundef %33) #11
  %43 = call i32 @xmlLineNumbersDefault(i32 noundef %34) #11
  %44 = call i32 @xmlKeepBlanksDefault(i32 noundef %35) #11
  %45 = icmp eq i32 %38, 0
  br i1 %45, label %46, label %48

46:                                               ; preds = %25
  %47 = getelementptr inbounds i8, ptr %1, i64 8
  store i32 3, ptr %47, align 8
  br label %53

48:                                               ; preds = %25
  call void (ptr, i32, ptr, ...) @php_error_docref(ptr noundef null, i32 noundef 2, ptr noundef nonnull @.str.19) #11
  %49 = getelementptr inbounds i8, ptr %1, i64 8
  store i32 2, ptr %49, align 8
  br label %53

50:                                               ; preds = %21
  call void (ptr, ptr, ...) @zend_throw_error(ptr noundef null, ptr noundef nonnull @.str.20) #11
  %51 = load ptr, ptr getelementptr inbounds (%struct._zend_executor_globals, ptr @executor_globals, i64 0, i32 50), align 8
  %52 = icmp ne ptr %51, null
  call void @llvm.assume(i1 %52)
  br label %53

53:                                               ; preds = %50, %48, %46, %18, %10
  ret void
}